; Function Attrs: mustprogress nofree norecurse nosync nounwind willreturn memory(read, inaccessiblemem: none) uwtable
define noundef i32 @_ZNK6icu_7517UCharsTrieBuilder22getElementStringLengthEi(ptr nocapture noundef nonnull readonly align 8 dereferenceable(112) %this, i32 noundef %i) unnamed_addr #7 align 2 {
entry:
  %elements = getelementptr inbounds i8, ptr %this, i64 80
  %0 = load ptr, ptr %elements, align 8
  %idxprom = sext i32 %i to i64
  %arrayidx = getelementptr inbounds %"class.icu_75::UCharsTrieElement", ptr %0, i64 %idxprom
  %1 = load i32, ptr %arrayidx, align 4
  %fUnion.i.i.i.i.i = getelementptr inbounds i8, ptr %this, i64 24
  %2 = load i16, ptr %fUnion.i.i.i.i.i, align 8
  %cmp.i.i.i.i.i = icmp slt i16 %2, 0
  %3 = ashr i16 %2, 5
  %shr.i.i.i.i.i = sext i16 %3 to i32
  %fLength.i.i.i.i = getelementptr inbounds i8, ptr %this, i64 28
  %4 = load i32, ptr %fLength.i.i.i.i, align 4
  %cond.i.i.i.i = select i1 %cmp.i.i.i.i.i, i32 %4, i32 %shr.i.i.i.i.i
  %cmp.i.i.i = icmp ugt i32 %cond.i.i.i.i, %1
  br i1 %cmp.i.i.i, label %if.then.i.i.i, label %_ZNK6icu_7517UCharsTrieElement15getStringLengthERKNS_13UnicodeStringE.exit

if.then.i.i.i:                                    ; preds = %entry
  %5 = and i16 %2, 2
  %tobool.not.i.i.i.i = icmp eq i16 %5, 0
  %fBuffer.i.i.i.i = getelementptr inbounds i8, ptr %this, i64 26
  %fArray.i.i.i.i = getelementptr inbounds i8, ptr %this, i64 40
  %6 = load ptr, ptr %fArray.i.i.i.i, align 8
  %cond.i2.i.i.i = select i1 %tobool.not.i.i.i.i, ptr %6, ptr %fBuffer.i.i.i.i
  %idxprom.i.i.i = sext i32 %1 to i64
  %arrayidx.i.i.i = getelementptr inbounds i16, ptr %cond.i2.i.i.i, i64 %idxprom.i.i.i
  %7 = load i16, ptr %arrayidx.i.i.i, align 2
  %8 = zext i16 %7 to i32
  br label %_ZNK6icu_7517UCharsTrieElement15getStringLengthERKNS_13UnicodeStringE.exit

_ZNK6icu_7517UCharsTrieElement15getStringLengthERKNS_13UnicodeStringE.exit: ; preds = %entry, %if.then.i.i.i
  %retval.0.i.i.i = phi i32 [ %8, %if.then.i.i.i ], [ 65535, %entry ]
  ret i32 %retval.0.i.i.i
}